(dp0
Vengine
p1
S'pdflatex'
p2
sVpackages
p3
c__builtin__
set
p4
((lp5
tp6
Rp7
sVfiles_with_guttermarks
p8
g4
((lp9
S'Raboteuse.tex'
p10
aV/Users/Lacharnay/Desktop/Ressources_PTSI/CI6_Cine\u0301matique/Cours/1_Virgile/Train_epi/Raboteuse/./Raboteuse.tex
p11
aV/Users/Lacharnay/Desktop/Ressources_PTSI/CI6_Cine\u0301matique/Cours/1_Virgile/Train_epi/Raboteuse/Raboteuse.tex
p12
atp13
Rp14
sVsynctex
p15
I01
s.