(dp0
Vengine
p1
S'pdflatex'
p2
sVpackages
p3
c__builtin__
set
p4
((lp5
tp6
Rp7
sVfiles_with_guttermarks
p8
g4
((lp9
S'Rovio_ter.tex'
p10
aV/Users/Lacharnay/Desktop/Ressources_PTSI/CI6_Cine\u0301matique/Cours/1_Virgile/Train_epi/Correction/Rovio_ter.tex
p11
aV/Users/Lacharnay/Desktop/Ressources_PTSI/CI6_Cine\u0301matique/Cours/1_Virgile/Train_epi/Correction/./Rovio_ter.tex
p12
aV/Users/Lacharnay/Desktop/Ressources PTSI/CI6_Cine\u0301matique/TD/Rovio/Rovio/./Rovio_ter.tex
p13
atp14
Rp15
sVsynctex
p16
I01
s.